target datalayout = "e-m:e-p270:32:32-p271:32:32-p272:64:64-i64:64-i128:128-f80:128-n8:16:32:64-S128"
target triple = "x86_64-pc-linux-gnu"

%struct.BIO_ASN1_EX_FUNCS_st = type { ptr, ptr }
%struct.bio_st = type { ptr, ptr, ptr, i32, i32, i32, i32, i32, i32, ptr, ptr, i64, i64 }
%struct.BIO_ASN1_BUF_CTX_t = type { i32, ptr, i32, i32, i32, i32, i32, i32, ptr, ptr, ptr, ptr, ptr, i32, i32, ptr }

; Function Attrs: nounwind uwtable
define internal i32 @asn1_bio_setup_ex(ptr noundef %0, ptr noundef %1, ptr noundef %2, i32 noundef %3, i32 noundef %4) #0 {
  %6 = alloca i32, align 4
  %7 = alloca ptr, align 8
  %8 = alloca ptr, align 8
  %9 = alloca ptr, align 8
  %10 = alloca i32, align 4
  %11 = alloca i32, align 4
  store ptr %0, ptr %7, align 8, !tbaa !6
  store ptr %1, ptr %8, align 8, !tbaa !24
  store ptr %2, ptr %9, align 8, !tbaa !11
  store i32 %3, ptr %10, align 4, !tbaa !12
  store i32 %4, ptr %11, align 4, !tbaa !12
  %12 = load ptr, ptr %9, align 8, !tbaa !11
  %13 = icmp ne ptr %12, null
  br i1 %13, label %14, label %27

14:                                               ; preds = %5
  %15 = load ptr, ptr %9, align 8, !tbaa !11
  %16 = load ptr, ptr %7, align 8, !tbaa !6
  %17 = load ptr, ptr %8, align 8, !tbaa !24
  %18 = getelementptr inbounds nuw %struct.BIO_ASN1_BUF_CTX_t, ptr %17, i32 0, i32 12
  %19 = load ptr, ptr %8, align 8, !tbaa !24
  %20 = getelementptr inbounds nuw %struct.BIO_ASN1_BUF_CTX_t, ptr %19, i32 0, i32 13
  %21 = load ptr, ptr %8, align 8, !tbaa !24
  %22 = getelementptr inbounds nuw %struct.BIO_ASN1_BUF_CTX_t, ptr %21, i32 0, i32 15
  %23 = call i32 %15(ptr noundef %16, ptr noundef %18, ptr noundef %20, ptr noundef %22)
  %24 = icmp ne i32 %23, 0
  br i1 %24, label %27, label %25

25:                                               ; preds = %14
  %26 = load ptr, ptr %7, align 8, !tbaa !6
  call void @BIO_clear_retry_flags(ptr noundef %26)
  store i32 0, ptr %6, align 4
  br label %41

27:                                               ; preds = %14, %5
  %28 = load ptr, ptr %8, align 8, !tbaa !24
  %29 = getelementptr inbounds nuw %struct.BIO_ASN1_BUF_CTX_t, ptr %28, i32 0, i32 13
  %30 = load i32, ptr %29, align 8, !tbaa !44
  %31 = icmp sgt i32 %30, 0
  br i1 %31, label %32, label %36

32:                                               ; preds = %27
  %33 = load i32, ptr %10, align 4, !tbaa !12
  %34 = load ptr, ptr %8, align 8, !tbaa !24
  %35 = getelementptr inbounds nuw %struct.BIO_ASN1_BUF_CTX_t, ptr %34, i32 0, i32 0
  store i32 %33, ptr %35, align 8, !tbaa !26
  br label %40

36:                                               ; preds = %27
  %37 = load i32, ptr %11, align 4, !tbaa !12
  %38 = load ptr, ptr %8, align 8, !tbaa !24
  %39 = getelementptr inbounds nuw %struct.BIO_ASN1_BUF_CTX_t, ptr %38, i32 0, i32 0
  store i32 %37, ptr %39, align 8, !tbaa !26
  br label %40

40:                                               ; preds = %36, %32
  store i32 1, ptr %6, align 4
  br label %41

41:                                               ; preds = %40, %25
  %42 = load i32, ptr %6, align 4
  ret i32 %42
}

; Function Attrs: nounwind uwtable
define internal i64 @asn1_bio_ctrl(ptr noundef %0, i32 noundef %1, i64 noundef %2, ptr noundef %3) #0 {
  %5 = alloca i64, align 8
  %6 = alloca ptr, align 8
  %7 = alloca i32, align 4
  %8 = alloca i64, align 8
  %9 = alloca ptr, align 8
  %10 = alloca ptr, align 8
  %11 = alloca ptr, align 8
  %12 = alloca i64, align 8
  %13 = alloca i32, align 4
  store ptr %0, ptr %6, align 8, !tbaa !6
  store i32 %1, ptr %7, align 4, !tbaa !12
  store i64 %2, ptr %8, align 8, !tbaa !36
  store ptr %3, ptr %9, align 8, !tbaa !11
  call void @llvm.lifetime.start.p0(i64 8, ptr %10) #6
  call void @llvm.lifetime.start.p0(i64 8, ptr %11) #6
  call void @llvm.lifetime.start.p0(i64 8, ptr %12) #6
  store i64 1, ptr %12, align 8, !tbaa !36
  %14 = load ptr, ptr %6, align 8, !tbaa !6
  %15 = getelementptr inbounds nuw %struct.bio_st, ptr %14, i32 0, i32 9
  %16 = load ptr, ptr %15, align 8, !tbaa !23
  store ptr %16, ptr %10, align 8, !tbaa !24
  %17 = load ptr, ptr %10, align 8, !tbaa !24
  %18 = icmp eq ptr %17, null
  br i1 %18, label %19, label %20

19:                                               ; preds = %4
  store i64 0, ptr %5, align 8
  store i32 1, ptr %13, align 4
  br label %149

20:                                               ; preds = %4
  %21 = load i32, ptr %7, align 4, !tbaa !12
  switch i32 %21, label %133 [
    i32 149, label %22
    i32 150, label %34
    i32 151, label %46
    i32 152, label %58
    i32 153, label %70
    i32 154, label %74
    i32 11, label %79
  ]

22:                                               ; preds = %20
  %23 = load ptr, ptr %9, align 8, !tbaa !11
  store ptr %23, ptr %11, align 8, !tbaa !37
  %24 = load ptr, ptr %11, align 8, !tbaa !37
  %25 = getelementptr inbounds nuw %struct.BIO_ASN1_EX_FUNCS_st, ptr %24, i32 0, i32 0
  %26 = load ptr, ptr %25, align 8, !tbaa !14
  %27 = load ptr, ptr %10, align 8, !tbaa !24
  %28 = getelementptr inbounds nuw %struct.BIO_ASN1_BUF_CTX_t, ptr %27, i32 0, i32 8
  store ptr %26, ptr %28, align 8, !tbaa !28
  %29 = load ptr, ptr %11, align 8, !tbaa !37
  %30 = getelementptr inbounds nuw %struct.BIO_ASN1_EX_FUNCS_st, ptr %29, i32 0, i32 1
  %31 = load ptr, ptr %30, align 8, !tbaa !16
  %32 = load ptr, ptr %10, align 8, !tbaa !24
  %33 = getelementptr inbounds nuw %struct.BIO_ASN1_BUF_CTX_t, ptr %32, i32 0, i32 9
  store ptr %31, ptr %33, align 8, !tbaa !29
  br label %147

34:                                               ; preds = %20
  %35 = load ptr, ptr %9, align 8, !tbaa !11
  store ptr %35, ptr %11, align 8, !tbaa !37
  %36 = load ptr, ptr %10, align 8, !tbaa !24
  %37 = getelementptr inbounds nuw %struct.BIO_ASN1_BUF_CTX_t, ptr %36, i32 0, i32 8
  %38 = load ptr, ptr %37, align 8, !tbaa !28
  %39 = load ptr, ptr %11, align 8, !tbaa !37
  %40 = getelementptr inbounds nuw %struct.BIO_ASN1_EX_FUNCS_st, ptr %39, i32 0, i32 0
  store ptr %38, ptr %40, align 8, !tbaa !14
  %41 = load ptr, ptr %10, align 8, !tbaa !24
  %42 = getelementptr inbounds nuw %struct.BIO_ASN1_BUF_CTX_t, ptr %41, i32 0, i32 9
  %43 = load ptr, ptr %42, align 8, !tbaa !29
  %44 = load ptr, ptr %11, align 8, !tbaa !37
  %45 = getelementptr inbounds nuw %struct.BIO_ASN1_EX_FUNCS_st, ptr %44, i32 0, i32 1
  store ptr %43, ptr %45, align 8, !tbaa !16
  br label %147

46:                                               ; preds = %20
  %47 = load ptr, ptr %9, align 8, !tbaa !11
  store ptr %47, ptr %11, align 8, !tbaa !37
  %48 = load ptr, ptr %11, align 8, !tbaa !37
  %49 = getelementptr inbounds nuw %struct.BIO_ASN1_EX_FUNCS_st, ptr %48, i32 0, i32 0
  %50 = load ptr, ptr %49, align 8, !tbaa !14
  %51 = load ptr, ptr %10, align 8, !tbaa !24
  %52 = getelementptr inbounds nuw %struct.BIO_ASN1_BUF_CTX_t, ptr %51, i32 0, i32 10
  store ptr %50, ptr %52, align 8, !tbaa !39
  %53 = load ptr, ptr %11, align 8, !tbaa !37
  %54 = getelementptr inbounds nuw %struct.BIO_ASN1_EX_FUNCS_st, ptr %53, i32 0, i32 1
  %55 = load ptr, ptr %54, align 8, !tbaa !16
  %56 = load ptr, ptr %10, align 8, !tbaa !24
  %57 = getelementptr inbounds nuw %struct.BIO_ASN1_BUF_CTX_t, ptr %56, i32 0, i32 11
  store ptr %55, ptr %57, align 8, !tbaa !40
  br label %147

58:                                               ; preds = %20
  %59 = load ptr, ptr %9, align 8, !tbaa !11
  store ptr %59, ptr %11, align 8, !tbaa !37
  %60 = load ptr, ptr %10, align 8, !tbaa !24
  %61 = getelementptr inbounds nuw %struct.BIO_ASN1_BUF_CTX_t, ptr %60, i32 0, i32 10
  %62 = load ptr, ptr %61, align 8, !tbaa !39
  %63 = load ptr, ptr %11, align 8, !tbaa !37
  %64 = getelementptr inbounds nuw %struct.BIO_ASN1_EX_FUNCS_st, ptr %63, i32 0, i32 0
  store ptr %62, ptr %64, align 8, !tbaa !14
  %65 = load ptr, ptr %10, align 8, !tbaa !24
  %66 = getelementptr inbounds nuw %struct.BIO_ASN1_BUF_CTX_t, ptr %65, i32 0, i32 11
  %67 = load ptr, ptr %66, align 8, !tbaa !40
  %68 = load ptr, ptr %11, align 8, !tbaa !37
  %69 = getelementptr inbounds nuw %struct.BIO_ASN1_EX_FUNCS_st, ptr %68, i32 0, i32 1
  store ptr %67, ptr %69, align 8, !tbaa !16
  br label %147

70:                                               ; preds = %20
  %71 = load ptr, ptr %9, align 8, !tbaa !11
  %72 = load ptr, ptr %10, align 8, !tbaa !24
  %73 = getelementptr inbounds nuw %struct.BIO_ASN1_BUF_CTX_t, ptr %72, i32 0, i32 15
  store ptr %71, ptr %73, align 8, !tbaa !41
  br label %147

74:                                               ; preds = %20
  %75 = load ptr, ptr %10, align 8, !tbaa !24
  %76 = getelementptr inbounds nuw %struct.BIO_ASN1_BUF_CTX_t, ptr %75, i32 0, i32 15
  %77 = load ptr, ptr %76, align 8, !tbaa !41
  %78 = load ptr, ptr %9, align 8, !tbaa !11
  store ptr %77, ptr %78, align 8, !tbaa !11
  br label %147

79:                                               ; preds = %20
  %80 = load ptr, ptr %6, align 8, !tbaa !6
  %81 = getelementptr inbounds nuw %struct.bio_st, ptr %80, i32 0, i32 10
  %82 = load ptr, ptr %81, align 8, !tbaa !19
  %83 = icmp ne ptr %82, null
  br i1 %83, label %85, label %84

84:                                               ; preds = %79
  store i64 0, ptr %5, align 8
  store i32 1, ptr %13, align 4
  br label %149

85:                                               ; preds = %79
  %86 = load ptr, ptr %10, align 8, !tbaa !24
  %87 = getelementptr inbounds nuw %struct.BIO_ASN1_BUF_CTX_t, ptr %86, i32 0, i32 0
  %88 = load i32, ptr %87, align 8, !tbaa !26
  %89 = icmp eq i32 %88, 2
  br i1 %89, label %90, label %100

90:                                               ; preds = %85
  %91 = load ptr, ptr %6, align 8, !tbaa !6
  %92 = load ptr, ptr %10, align 8, !tbaa !24
  %93 = load ptr, ptr %10, align 8, !tbaa !24
  %94 = getelementptr inbounds nuw %struct.BIO_ASN1_BUF_CTX_t, ptr %93, i32 0, i32 10
  %95 = load ptr, ptr %94, align 8, !tbaa !39
  %96 = call i32 @asn1_bio_setup_ex(ptr noundef %91, ptr noundef %92, ptr noundef %95, i32 noundef 5, i32 noundef 6)
  %97 = icmp ne i32 %96, 0
  br i1 %97, label %99, label %98

98:                                               ; preds = %90
  store i64 0, ptr %5, align 8
  store i32 1, ptr %13, align 4
  br label %149

99:                                               ; preds = %90
  br label %100

100:                                              ; preds = %99, %85
  %101 = load ptr, ptr %10, align 8, !tbaa !24
  %102 = getelementptr inbounds nuw %struct.BIO_ASN1_BUF_CTX_t, ptr %101, i32 0, i32 0
  %103 = load i32, ptr %102, align 8, !tbaa !26
  %104 = icmp eq i32 %103, 5
  br i1 %104, label %105, label %118

105:                                              ; preds = %100
  %106 = load ptr, ptr %6, align 8, !tbaa !6
  %107 = load ptr, ptr %10, align 8, !tbaa !24
  %108 = load ptr, ptr %10, align 8, !tbaa !24
  %109 = getelementptr inbounds nuw %struct.BIO_ASN1_BUF_CTX_t, ptr %108, i32 0, i32 11
  %110 = load ptr, ptr %109, align 8, !tbaa !40
  %111 = call i32 @asn1_bio_flush_ex(ptr noundef %106, ptr noundef %107, ptr noundef %110, i32 noundef 6)
  %112 = sext i32 %111 to i64
  store i64 %112, ptr %12, align 8, !tbaa !36
  %113 = load i64, ptr %12, align 8, !tbaa !36
  %114 = icmp sle i64 %113, 0
  br i1 %114, label %115, label %117

115:                                              ; preds = %105
  %116 = load i64, ptr %12, align 8, !tbaa !36
  store i64 %116, ptr %5, align 8
  store i32 1, ptr %13, align 4
  br label %149

117:                                              ; preds = %105
  br label %118

118:                                              ; preds = %117, %100
  %119 = load ptr, ptr %10, align 8, !tbaa !24
  %120 = getelementptr inbounds nuw %struct.BIO_ASN1_BUF_CTX_t, ptr %119, i32 0, i32 0
  %121 = load i32, ptr %120, align 8, !tbaa !26
  %122 = icmp eq i32 %121, 6
  br i1 %122, label %123, label %131

123:                                              ; preds = %118
  %124 = load ptr, ptr %6, align 8, !tbaa !6
  %125 = getelementptr inbounds nuw %struct.bio_st, ptr %124, i32 0, i32 10
  %126 = load ptr, ptr %125, align 8, !tbaa !19
  %127 = load i32, ptr %7, align 4, !tbaa !12
  %128 = load i64, ptr %8, align 8, !tbaa !36
  %129 = load ptr, ptr %9, align 8, !tbaa !11
  %130 = call i64 @BIO_ctrl(ptr noundef %126, i32 noundef %127, i64 noundef %128, ptr noundef %129)
  store i64 %130, ptr %5, align 8
  store i32 1, ptr %13, align 4
  br label %149

131:                                              ; preds = %118
  %132 = load ptr, ptr %6, align 8, !tbaa !6
  call void @BIO_clear_retry_flags(ptr noundef %132)
  store i64 0, ptr %5, align 8
  store i32 1, ptr %13, align 4
  br label %149

133:                                              ; preds = %20
  %134 = load ptr, ptr %6, align 8, !tbaa !6
  %135 = getelementptr inbounds nuw %struct.bio_st, ptr %134, i32 0, i32 10
  %136 = load ptr, ptr %135, align 8, !tbaa !19
  %137 = icmp ne ptr %136, null
  br i1 %137, label %139, label %138

138:                                              ; preds = %133
  store i64 0, ptr %5, align 8
  store i32 1, ptr %13, align 4
  br label %149

139:                                              ; preds = %133
  %140 = load ptr, ptr %6, align 8, !tbaa !6
  %141 = getelementptr inbounds nuw %struct.bio_st, ptr %140, i32 0, i32 10
  %142 = load ptr, ptr %141, align 8, !tbaa !19
  %143 = load i32, ptr %7, align 4, !tbaa !12
  %144 = load i64, ptr %8, align 8, !tbaa !36
  %145 = load ptr, ptr %9, align 8, !tbaa !11
  %146 = call i64 @BIO_ctrl(ptr noundef %142, i32 noundef %143, i64 noundef %144, ptr noundef %145)
  store i64 %146, ptr %5, align 8
  store i32 1, ptr %13, align 4
  br label %149

147:                                              ; preds = %74, %70, %58, %46, %34, %22
  %148 = load i64, ptr %12, align 8, !tbaa !36
  store i64 %148, ptr %5, align 8
  store i32 1, ptr %13, align 4
  br label %149

149:                                              ; preds = %147, %139, %138, %131, %123, %115, %98, %84, %19
  call void @llvm.lifetime.end.p0(i64 8, ptr %12) #6
  call void @llvm.lifetime.end.p0(i64 8, ptr %11) #6
  call void @llvm.lifetime.end.p0(i64 8, ptr %10) #6
  %150 = load i64, ptr %5, align 8
  ret i64 %150
}