; Function Attrs: nounwind uwtable
define internal i64 @asn1_bio_ctrl(ptr noundef %0, i32 noundef %1, i64 noundef %2, ptr noundef %3) #1 {
  %5 = getelementptr inbounds nuw i8, ptr %0, i64 48
  %6 = load ptr, ptr %5, align 8, !tbaa !20
  %7 = icmp eq ptr %6, null
  br i1 %7, label %77, label %8

8:                                                ; preds = %4
  switch i32 %1, label %72 [
    i32 149, label %9
    i32 150, label %15
    i32 151, label %21
    i32 152, label %27
    i32 153, label %33
    i32 154, label %35
    i32 11, label %38
  ]

9:                                                ; preds = %8
  %10 = load ptr, ptr %3, align 8, !tbaa !6
  %11 = getelementptr inbounds nuw i8, ptr %6, i64 40
  store ptr %10, ptr %11, align 8, !tbaa !23
  %12 = getelementptr inbounds nuw i8, ptr %3, i64 8
  %13 = load ptr, ptr %12, align 8, !tbaa !11
  %14 = getelementptr inbounds nuw i8, ptr %6, i64 48
  store ptr %13, ptr %14, align 8, !tbaa !25
  br label %77

15:                                               ; preds = %8
  %16 = getelementptr inbounds nuw i8, ptr %6, i64 40
  %17 = load ptr, ptr %16, align 8, !tbaa !23
  store ptr %17, ptr %3, align 8, !tbaa !6
  %18 = getelementptr inbounds nuw i8, ptr %6, i64 48
  %19 = load ptr, ptr %18, align 8, !tbaa !25
  %20 = getelementptr inbounds nuw i8, ptr %3, i64 8
  store ptr %19, ptr %20, align 8, !tbaa !11
  br label %77

21:                                               ; preds = %8
  %22 = load ptr, ptr %3, align 8, !tbaa !6
  %23 = getelementptr inbounds nuw i8, ptr %6, i64 56
  store ptr %22, ptr %23, align 8, !tbaa !35
  %24 = getelementptr inbounds nuw i8, ptr %3, i64 8
  %25 = load ptr, ptr %24, align 8, !tbaa !11
  %26 = getelementptr inbounds nuw i8, ptr %6, i64 64
  store ptr %25, ptr %26, align 8, !tbaa !36
  br label %77

27:                                               ; preds = %8
  %28 = getelementptr inbounds nuw i8, ptr %6, i64 56
  %29 = load ptr, ptr %28, align 8, !tbaa !35
  store ptr %29, ptr %3, align 8, !tbaa !6
  %30 = getelementptr inbounds nuw i8, ptr %6, i64 64
  %31 = load ptr, ptr %30, align 8, !tbaa !36
  %32 = getelementptr inbounds nuw i8, ptr %3, i64 8
  store ptr %31, ptr %32, align 8, !tbaa !11
  br label %77

33:                                               ; preds = %8
  %34 = getelementptr inbounds nuw i8, ptr %6, i64 88
  store ptr %3, ptr %34, align 8, !tbaa !37
  br label %77

35:                                               ; preds = %8
  %36 = getelementptr inbounds nuw i8, ptr %6, i64 88
  %37 = load ptr, ptr %36, align 8, !tbaa !37
  store ptr %37, ptr %3, align 8, !tbaa !12
  br label %77

38:                                               ; preds = %8
  %39 = getelementptr inbounds nuw i8, ptr %0, i64 56
  %40 = load ptr, ptr %39, align 8, !tbaa !13
  %.not = icmp eq ptr %40, null
  br i1 %.not, label %77, label %41

41:                                               ; preds = %38
  %42 = load i32, ptr %6, align 8, !tbaa !21
  %43 = icmp eq i32 %42, 2
  br i1 %43, label %44, label %55

44:                                               ; preds = %41
  %45 = getelementptr inbounds nuw i8, ptr %6, i64 56
  %46 = load ptr, ptr %45, align 8, !tbaa !35
  %.not.i = icmp eq ptr %46, null
  br i1 %.not.i, label %asn1_bio_setup_ex.exit, label %47

47:                                               ; preds = %44
  %48 = getelementptr inbounds nuw i8, ptr %6, i64 72
  %49 = getelementptr inbounds nuw i8, ptr %6, i64 80
  %50 = getelementptr inbounds nuw i8, ptr %6, i64 88
  %51 = tail call i32 %46(ptr noundef nonnull %0, ptr noundef nonnull %48, ptr noundef nonnull %49, ptr noundef nonnull %50) #11
  %.not13.i = icmp eq i32 %51, 0
  br i1 %.not13.i, label %asn1_bio_setup_ex.exit.thread, label %asn1_bio_setup_ex.exit

asn1_bio_setup_ex.exit.thread:                    ; preds = %47
  tail call void @BIO_clear_retry_flags(ptr noundef nonnull %0) #11
  br label %77

asn1_bio_setup_ex.exit:                           ; preds = %44, %47
  %52 = getelementptr inbounds nuw i8, ptr %6, i64 80
  %53 = load i32, ptr %52, align 8, !tbaa !24
  %54 = icmp sgt i32 %53, 0
  %..i = select i1 %54, i32 5, i32 6
  store i32 %..i, ptr %6, align 8, !tbaa !21
  br label %55

55:                                               ; preds = %asn1_bio_setup_ex.exit, %41
  %56 = phi i32 [ %..i, %asn1_bio_setup_ex.exit ], [ %42, %41 ]
  %57 = icmp eq i32 %56, 5
  br i1 %57, label %58, label %65

58:                                               ; preds = %55
  %59 = getelementptr inbounds nuw i8, ptr %6, i64 64
  %60 = load ptr, ptr %59, align 8, !tbaa !36
  %61 = tail call fastcc i32 @asn1_bio_flush_ex(ptr noundef nonnull %0, ptr noundef %6, ptr noundef %60, i32 noundef 6)
  %62 = icmp slt i32 %61, 1
  br i1 %62, label %63, label %._crit_edge

._crit_edge:                                      ; preds = %58
  %.pre = load i32, ptr %6, align 8, !tbaa !21
  br label %65

63:                                               ; preds = %58
  %64 = sext i32 %61 to i64
  br label %77

65:                                               ; preds = %._crit_edge, %55
  %66 = phi i32 [ %.pre, %._crit_edge ], [ %56, %55 ]
  %67 = icmp eq i32 %66, 6
  br i1 %67, label %68, label %71

68:                                               ; preds = %65
  %69 = load ptr, ptr %39, align 8, !tbaa !13
  %70 = tail call i64 @BIO_ctrl(ptr noundef %69, i32 noundef 11, i64 noundef %2, ptr noundef %3) #11
  br label %77

71:                                               ; preds = %65
  tail call void @BIO_clear_retry_flags(ptr noundef nonnull %0) #11
  br label %77

72:                                               ; preds = %8
  %73 = getelementptr inbounds nuw i8, ptr %0, i64 56
  %74 = load ptr, ptr %73, align 8, !tbaa !13
  %.not55 = icmp eq ptr %74, null
  br i1 %.not55, label %77, label %75

75:                                               ; preds = %72
  %76 = tail call i64 @BIO_ctrl(ptr noundef nonnull %74, i32 noundef %1, i64 noundef %2, ptr noundef %3) #11
  br label %77

77:                                               ; preds = %asn1_bio_setup_ex.exit.thread, %9, %15, %21, %27, %33, %35, %72, %38, %4, %75, %71, %68, %63
  %.0 = phi i64 [ %76, %75 ], [ %64, %63 ], [ %70, %68 ], [ 0, %71 ], [ 0, %4 ], [ 0, %38 ], [ 0, %72 ], [ 1, %35 ], [ 1, %33 ], [ 1, %27 ], [ 1, %21 ], [ 1, %15 ], [ 1, %9 ], [ 0, %asn1_bio_setup_ex.exit.thread ]
  ret i64 %.0
}